target datalayout = "e-m:e-p270:32:32-p271:32:32-p272:64:64-i64:64-i128:128-f80:128-n8:16:32:64-S128"
target triple = "x86_64-unknown-linux-gnu"

%"class.cvc5::internal::theory::Valuation" = type { ptr }
%"class.std::__cxx11::basic_string" = type { %"struct.std::__cxx11::basic_string<char>::_Alloc_hider", i64, %union.anon }
%"struct.std::__cxx11::basic_string<char>::_Alloc_hider" = type { ptr }
%union.anon = type { i64, [8 x i8] }
%"class.std::allocator" = type { i8 }
%"class.cvc5::internal::theory::booleans::TheoryBool" = type { %"class.cvc5::internal::theory::Theory", %"class.cvc5::internal::theory::booleans::TheoryBoolRewriter", %"class.cvc5::internal::theory::booleans::BoolProofRuleChecker" }
%"class.cvc5::internal::theory::Theory" = type { %"class.cvc5::internal::EnvObj", %"class.std::__cxx11::basic_string", %"class.cvc5::internal::TimerStat", %"class.cvc5::internal::TimerStat", %"class.cvc5::context::CDList", ptr, %"class.cvc5::internal::theory::Valuation", ptr, %"class.std::unique_ptr", ptr, ptr, ptr, ptr, i32, [4 x i8], %"class.cvc5::context::CDList.5", %"class.cvc5::context::CDO", %"class.cvc5::context::CDO", ptr, ptr }
%"class.cvc5::internal::EnvObj" = type { ptr, ptr }
%"class.cvc5::internal::TimerStat" = type { ptr }
%"class.cvc5::context::CDList" = type <{ %"class.cvc5::context::ContextObj", %"class.std::vector", i64, i8, %"class.cvc5::context::DefaultCleanUp", [6 x i8] }>
%"class.cvc5::context::ContextObj" = type { ptr, ptr, ptr, ptr, ptr }
%"class.std::vector" = type { %"struct.std::_Vector_base" }
%"struct.std::_Vector_base" = type { %"struct.std::_Vector_base<cvc5::internal::NodeTemplate<false>, std::allocator<cvc5::internal::NodeTemplate<false>>>::_Vector_impl" }
%"struct.std::_Vector_base<cvc5::internal::NodeTemplate<false>, std::allocator<cvc5::internal::NodeTemplate<false>>>::_Vector_impl" = type { %"struct.std::_Vector_base<cvc5::internal::NodeTemplate<false>, std::allocator<cvc5::internal::NodeTemplate<false>>>::_Vector_impl_data" }
%"struct.std::_Vector_base<cvc5::internal::NodeTemplate<false>, std::allocator<cvc5::internal::NodeTemplate<false>>>::_Vector_impl_data" = type { ptr, ptr, ptr }
%"class.cvc5::context::DefaultCleanUp" = type { i8 }
%"class.std::unique_ptr" = type { %"struct.std::__uniq_ptr_data" }
%"struct.std::__uniq_ptr_data" = type { %"class.std::__uniq_ptr_impl" }
%"class.std::__uniq_ptr_impl" = type { %"class.std::tuple" }
%"class.std::tuple" = type { %"struct.std::_Tuple_impl" }
%"struct.std::_Tuple_impl" = type { %"struct.std::_Head_base.4" }
%"struct.std::_Head_base.4" = type { ptr }
%"class.cvc5::context::CDList.5" = type <{ %"class.cvc5::context::ContextObj", %"class.std::vector.6", i64, i8, %"class.cvc5::context::DefaultCleanUp.11", [6 x i8] }>
%"class.std::vector.6" = type { %"struct.std::_Vector_base.7" }
%"struct.std::_Vector_base.7" = type { %"struct.std::_Vector_base<cvc5::internal::theory::Assertion, std::allocator<cvc5::internal::theory::Assertion>>::_Vector_impl" }
%"struct.std::_Vector_base<cvc5::internal::theory::Assertion, std::allocator<cvc5::internal::theory::Assertion>>::_Vector_impl" = type { %"struct.std::_Vector_base<cvc5::internal::theory::Assertion, std::allocator<cvc5::internal::theory::Assertion>>::_Vector_impl_data" }
%"struct.std::_Vector_base<cvc5::internal::theory::Assertion, std::allocator<cvc5::internal::theory::Assertion>>::_Vector_impl_data" = type { ptr, ptr, ptr }
%"class.cvc5::context::DefaultCleanUp.11" = type { i8 }
%"class.cvc5::context::CDO" = type <{ %"class.cvc5::context::ContextObj", i32, [4 x i8] }>
%"class.cvc5::internal::theory::booleans::TheoryBoolRewriter" = type { %"class.cvc5::internal::theory::TheoryRewriter" }
%"class.cvc5::internal::theory::TheoryRewriter" = type { ptr }
%"class.cvc5::internal::theory::booleans::BoolProofRuleChecker" = type { %"class.cvc5::internal::ProofRuleChecker" }
%"class.cvc5::internal::ProofRuleChecker" = type { ptr }

@.str = private unnamed_addr constant [1 x i8] zeroinitializer, align 1
@_ZTVN4cvc58internal6theory8booleans18TheoryBoolRewriterE = external unnamed_addr constant { [12 x ptr] }, align 8
@_ZTVN4cvc58internal6theory14TheoryRewriterE = external unnamed_addr constant { [12 x ptr] }, align 8
@_ZTVN4cvc58internal6theory8booleans20BoolProofRuleCheckerE = external unnamed_addr constant { [6 x ptr] }, align 8
@.str.7 = private unnamed_addr constant [50 x i8] c"basic_string: construction from null is not valid\00", align 1

; Function Attrs: mustprogress nounwind uwtable
define linkonce_odr hidden void @_ZN4cvc58internal6theory14TheoryRewriterD2Ev(ptr noundef nonnull align 8 dereferenceable(8) %this) unnamed_addr #6 comdat align 2 {
entry:
  %this.addr = alloca ptr, align 8
  store ptr %this, ptr %this.addr, align 8
  ret void
}

; Function Attrs: mustprogress nounwind uwtable
define linkonce_odr hidden void @_ZN4cvc58internal16ProofRuleCheckerC2Ev(ptr noundef nonnull align 8 dereferenceable(8) %this) unnamed_addr #6 comdat align 2 {
entry:
  %this.addr = alloca ptr, align 8
  store ptr %this, ptr %this.addr, align 8
  %this1 = load ptr, ptr %this.addr, align 8
  store ptr getelementptr inbounds ({ [6 x ptr] }, ptr @_ZTVN4cvc58internal16ProofRuleCheckerE, i32 0, i32 0, i32 2), ptr %this1, align 8
  ret void
}

; Function Attrs: mustprogress nounwind uwtable
define linkonce_odr hidden void @_ZN4cvc58internal6theory14TheoryRewriterC2Ev(ptr noundef nonnull align 8 dereferenceable(8) %this) unnamed_addr #6 comdat align 2 {
entry:
  %this.addr = alloca ptr, align 8
  store ptr %this, ptr %this.addr, align 8
  %this1 = load ptr, ptr %this.addr, align 8
  store ptr getelementptr inbounds ({ [12 x ptr] }, ptr @_ZTVN4cvc58internal6theory14TheoryRewriterE, i32 0, i32 0, i32 2), ptr %this1, align 8
  ret void
}

; Function Attrs: mustprogress nounwind uwtable
define linkonce_odr hidden noundef i64 @_ZNSt11char_traitsIcE6lengthEPKc(ptr noundef %__s) #6 comdat align 2 {
entry:
  %__s.addr = alloca ptr, align 8
  store ptr %__s, ptr %__s.addr, align 8
  %0 = load ptr, ptr %__s.addr, align 8
  %call = call i64 @strlen(ptr noundef %0) #3
  ret i64 %call
}

; Function Attrs: mustprogress nounwind uwtable
define linkonce_odr hidden void @_ZNSt7__cxx1112basic_stringIcSt11char_traitsIcESaIcEE12_Alloc_hiderD2Ev(ptr noundef nonnull align 8 dereferenceable(8) %this) unnamed_addr #6 comdat align 2 {
entry:
  %this.addr = alloca ptr, align 8
  store ptr %this, ptr %this.addr, align 8
  %this1 = load ptr, ptr %this.addr, align 8
  call void @_ZNSaIcED2Ev(ptr noundef nonnull align 1 dereferenceable(1) %this1) #3
  ret void
}

; Function Attrs: mustprogress nounwind uwtable
define linkonce_odr hidden void @_ZN4cvc58internal6theory8booleans18TheoryBoolRewriterD2Ev(ptr noundef nonnull align 8 dereferenceable(8) %this) unnamed_addr #6 comdat align 2 {
entry:
  %this.addr = alloca ptr, align 8
  store ptr %this, ptr %this.addr, align 8
  %this1 = load ptr, ptr %this.addr, align 8
  call void @_ZN4cvc58internal6theory14TheoryRewriterD2Ev(ptr noundef nonnull align 8 dereferenceable(8) %this1) #3
  ret void
}

; Function Attrs: mustprogress uwtable
define linkonce_odr hidden void @_ZN4cvc58internal6theory8booleans20BoolProofRuleCheckerC2Ev(ptr noundef nonnull align 8 dereferenceable(8) %this) unnamed_addr #4 comdat align 2 {
entry:
  %this.addr = alloca ptr, align 8
  store ptr %this, ptr %this.addr, align 8
  %this1 = load ptr, ptr %this.addr, align 8
  call void @_ZN4cvc58internal16ProofRuleCheckerC2Ev(ptr noundef nonnull align 8 dereferenceable(8) %this1)
  store ptr getelementptr inbounds ({ [6 x ptr] }, ptr @_ZTVN4cvc58internal6theory8booleans20BoolProofRuleCheckerE, i32 0, i32 0, i32 2), ptr %this1, align 8
  ret void
}

; Function Attrs: mustprogress nounwind uwtable
define linkonce_odr hidden void @_ZN4cvc58internal6theory8booleans18TheoryBoolRewriterC2Ev(ptr noundef nonnull align 8 dereferenceable(8) %this) unnamed_addr #6 comdat align 2 {
entry:
  %this.addr = alloca ptr, align 8
  store ptr %this, ptr %this.addr, align 8
  %this1 = load ptr, ptr %this.addr, align 8
  call void @_ZN4cvc58internal6theory14TheoryRewriterC2Ev(ptr noundef nonnull align 8 dereferenceable(8) %this1) #3
  store ptr getelementptr inbounds ({ [12 x ptr] }, ptr @_ZTVN4cvc58internal6theory8booleans18TheoryBoolRewriterE, i32 0, i32 0, i32 2), ptr %this1, align 8
  ret void
}

; Function Attrs: mustprogress uwtable
define linkonce_odr hidden void @_ZNSt7__cxx1112basic_stringIcSt11char_traitsIcESaIcEEC2IS3_EEPKcRKS3_(ptr noundef nonnull align 8 dereferenceable(32) %this, ptr noundef %__s, ptr noundef nonnull align 1 dereferenceable(1) %__a) unnamed_addr #4 comdat align 2 personality ptr @__gxx_personality_v0 {
entry:
  %this.addr = alloca ptr, align 8
  %__s.addr = alloca ptr, align 8
  %__a.addr = alloca ptr, align 8
  %exn.slot = alloca ptr, align 8
  %ehselector.slot = alloca i32, align 4
  %__end = alloca ptr, align 8
  store ptr %this, ptr %this.addr, align 8
  store ptr %__s, ptr %__s.addr, align 8
  store ptr %__a, ptr %__a.addr, align 8
  %this1 = load ptr, ptr %this.addr, align 8
  %_M_dataplus = getelementptr inbounds %"class.std::__cxx11::basic_string", ptr %this1, i32 0, i32 0
  %call = call noundef ptr @_ZNSt7__cxx1112basic_stringIcSt11char_traitsIcESaIcEE13_M_local_dataEv(ptr noundef nonnull align 8 dereferenceable(32) %this1)
  %0 = load ptr, ptr %__a.addr, align 8
  call void @_ZNSt7__cxx1112basic_stringIcSt11char_traitsIcESaIcEE12_Alloc_hiderC1EPcRKS3_(ptr noundef nonnull align 8 dereferenceable(8) %_M_dataplus, ptr noundef %call, ptr noundef nonnull align 1 dereferenceable(1) %0)
  %1 = load ptr, ptr %__s.addr, align 8
  %cmp = icmp eq ptr %1, null
  br i1 %cmp, label %if.then, label %if.end

if.then:                                          ; preds = %entry
  invoke void @_ZSt19__throw_logic_errorPKc(ptr noundef @.str.7) #13
          to label %invoke.cont unwind label %lpad

invoke.cont:                                      ; preds = %if.then
  unreachable

lpad:                                             ; preds = %invoke.cont2, %if.end, %if.then
  %2 = landingpad { ptr, i32 }
          cleanup
  %3 = extractvalue { ptr, i32 } %2, 0
  store ptr %3, ptr %exn.slot, align 8
  %4 = extractvalue { ptr, i32 } %2, 1
  store i32 %4, ptr %ehselector.slot, align 4
  call void @_ZNSt7__cxx1112basic_stringIcSt11char_traitsIcESaIcEE12_Alloc_hiderD2Ev(ptr noundef nonnull align 8 dereferenceable(8) %_M_dataplus) #3
  br label %eh.resume

if.end:                                           ; preds = %entry
  %5 = load ptr, ptr %__s.addr, align 8
  %6 = load ptr, ptr %__s.addr, align 8
  %call3 = invoke noundef i64 @_ZNSt11char_traitsIcE6lengthEPKc(ptr noundef %6)
          to label %invoke.cont2 unwind label %lpad

invoke.cont2:                                     ; preds = %if.end
  %add.ptr = getelementptr inbounds i8, ptr %5, i64 %call3
  store ptr %add.ptr, ptr %__end, align 8
  %7 = load ptr, ptr %__s.addr, align 8
  %8 = load ptr, ptr %__end, align 8
  invoke void @_ZNSt7__cxx1112basic_stringIcSt11char_traitsIcESaIcEE12_M_constructIPKcEEvT_S8_St20forward_iterator_tag(ptr noundef nonnull align 8 dereferenceable(32) %this1, ptr noundef %7, ptr noundef %8)
          to label %invoke.cont4 unwind label %lpad

invoke.cont4:                                     ; preds = %invoke.cont2
  ret void

eh.resume:                                        ; preds = %lpad
  %exn = load ptr, ptr %exn.slot, align 8
  %sel = load i32, ptr %ehselector.slot, align 4
  %lpad.val = insertvalue { ptr, i32 } poison, ptr %exn, 0
  %lpad.val5 = insertvalue { ptr, i32 } %lpad.val, i32 %sel, 1
  resume { ptr, i32 } %lpad.val5
}

; Function Attrs: mustprogress uwtable
define hidden void @_ZN4cvc58internal6theory8booleans10TheoryBoolC2ERNS0_3EnvERNS1_13OutputChannelENS1_9ValuationE(ptr noundef nonnull align 8 dereferenceable(424) %this, ptr noundef nonnull align 8 dereferenceable(576) %env, ptr noundef nonnull align 1 %out, ptr %valuation.coerce) unnamed_addr #4 align 2 personality ptr @__gxx_personality_v0 {
entry:
  %valuation = alloca %"class.cvc5::internal::theory::Valuation", align 8
  %this.addr = alloca ptr, align 8
  %env.addr = alloca ptr, align 8
  %out.addr = alloca ptr, align 8
  %agg.tmp = alloca %"class.cvc5::internal::theory::Valuation", align 8
  %agg.tmp2 = alloca %"class.std::__cxx11::basic_string", align 8
  %ref.tmp = alloca %"class.std::allocator", align 1
  %exn.slot = alloca ptr, align 8
  %ehselector.slot = alloca i32, align 4
  %coerce.dive = getelementptr inbounds %"class.cvc5::internal::theory::Valuation", ptr %valuation, i32 0, i32 0
  store ptr %valuation.coerce, ptr %coerce.dive, align 8
  store ptr %this, ptr %this.addr, align 8
  store ptr %env, ptr %env.addr, align 8
  store ptr %out, ptr %out.addr, align 8
  %this1 = load ptr, ptr %this.addr, align 8
  %0 = load ptr, ptr %env.addr, align 8
  %1 = load ptr, ptr %out.addr, align 8
  call void @llvm.memcpy.p0.p0.i64(ptr align 8 %agg.tmp, ptr align 8 %valuation, i64 8, i1 false)
  call void @_ZNSaIcEC1Ev(ptr noundef nonnull align 1 dereferenceable(1) %ref.tmp) #3
  invoke void @_ZNSt7__cxx1112basic_stringIcSt11char_traitsIcESaIcEEC2IS3_EEPKcRKS3_(ptr noundef nonnull align 8 dereferenceable(32) %agg.tmp2, ptr noundef @.str, ptr noundef nonnull align 1 dereferenceable(1) %ref.tmp)
          to label %invoke.cont unwind label %lpad

invoke.cont:                                      ; preds = %entry
  %coerce.dive3 = getelementptr inbounds %"class.cvc5::internal::theory::Valuation", ptr %agg.tmp, i32 0, i32 0
  %2 = load ptr, ptr %coerce.dive3, align 8
  invoke void @_ZN4cvc58internal6theory6TheoryC2ENS1_8TheoryIdERNS0_3EnvERNS1_13OutputChannelENS1_9ValuationENSt7__cxx1112basic_stringIcSt11char_traitsIcESaIcEEE(ptr noundef nonnull align 8 dereferenceable(408) %this1, i32 noundef 1, ptr noundef nonnull align 8 dereferenceable(576) %0, ptr noundef nonnull align 1 %1, ptr %2, ptr noundef %agg.tmp2)
          to label %invoke.cont5 unwind label %lpad4

invoke.cont5:                                     ; preds = %invoke.cont
  call void @_ZNSt7__cxx1112basic_stringIcSt11char_traitsIcESaIcEED1Ev(ptr noundef nonnull align 8 dereferenceable(32) %agg.tmp2) #3
  call void @_ZNSaIcED1Ev(ptr noundef nonnull align 1 dereferenceable(1) %ref.tmp) #3
  store ptr getelementptr inbounds ({ [36 x ptr] }, ptr @_ZTVN4cvc58internal6theory8booleans10TheoryBoolE, i32 0, i32 0, i32 2), ptr %this1, align 8
  %d_rewriter = getelementptr inbounds %"class.cvc5::internal::theory::booleans::TheoryBool", ptr %this1, i32 0, i32 1
  call void @_ZN4cvc58internal6theory8booleans18TheoryBoolRewriterC2Ev(ptr noundef nonnull align 8 dereferenceable(8) %d_rewriter) #3
  %d_checker = getelementptr inbounds %"class.cvc5::internal::theory::booleans::TheoryBool", ptr %this1, i32 0, i32 2
  invoke void @_ZN4cvc58internal6theory8booleans20BoolProofRuleCheckerC2Ev(ptr noundef nonnull align 8 dereferenceable(8) %d_checker)
          to label %invoke.cont7 unwind label %lpad6

invoke.cont7:                                     ; preds = %invoke.cont5
  ret void

lpad:                                             ; preds = %entry
  %3 = landingpad { ptr, i32 }
          cleanup
  %4 = extractvalue { ptr, i32 } %3, 0
  store ptr %4, ptr %exn.slot, align 8
  %5 = extractvalue { ptr, i32 } %3, 1
  store i32 %5, ptr %ehselector.slot, align 4
  br label %ehcleanup

lpad4:                                            ; preds = %invoke.cont
  %6 = landingpad { ptr, i32 }
          cleanup
  %7 = extractvalue { ptr, i32 } %6, 0
  store ptr %7, ptr %exn.slot, align 8
  %8 = extractvalue { ptr, i32 } %6, 1
  store i32 %8, ptr %ehselector.slot, align 4
  call void @_ZNSt7__cxx1112basic_stringIcSt11char_traitsIcESaIcEED1Ev(ptr noundef nonnull align 8 dereferenceable(32) %agg.tmp2) #3
  br label %ehcleanup

ehcleanup:                                        ; preds = %lpad4, %lpad
  call void @_ZNSaIcED1Ev(ptr noundef nonnull align 1 dereferenceable(1) %ref.tmp) #3
  br label %eh.resume

lpad6:                                            ; preds = %invoke.cont5
  %9 = landingpad { ptr, i32 }
          cleanup
  %10 = extractvalue { ptr, i32 } %9, 0
  store ptr %10, ptr %exn.slot, align 8
  %11 = extractvalue { ptr, i32 } %9, 1
  store i32 %11, ptr %ehselector.slot, align 4
  call void @_ZN4cvc58internal6theory8booleans18TheoryBoolRewriterD2Ev(ptr noundef nonnull align 8 dereferenceable(8) %d_rewriter) #3
  call void @_ZN4cvc58internal6theory6TheoryD2Ev(ptr noundef nonnull align 8 dereferenceable(408) %this1) #3
  br label %eh.resume

eh.resume:                                        ; preds = %lpad6, %ehcleanup
  %exn = load ptr, ptr %exn.slot, align 8
  %sel = load i32, ptr %ehselector.slot, align 4
  %lpad.val = insertvalue { ptr, i32 } poison, ptr %exn, 0
  %lpad.val10 = insertvalue { ptr, i32 } %lpad.val, i32 %sel, 1
  resume { ptr, i32 } %lpad.val10
}